target datalayout = "e-m:e-p270:32:32-p271:32:32-p272:64:64-i64:64-i128:128-f80:128-n8:16:32:64-S128"
target triple = "x86_64-pc-linux-gnu"

%class.b3BoundSearchCL = type { ptr, ptr, ptr, ptr, ptr, ptr, ptr, ptr, ptr, ptr, ptr }

@_ZTV15b3BoundSearchCL = dso_local unnamed_addr constant { [4 x ptr] } { [4 x ptr] [ptr null, ptr @_ZTI15b3BoundSearchCL, ptr @_ZN15b3BoundSearchCLD1Ev, ptr @_ZN15b3BoundSearchCLD0Ev] }, align 8
@.str = private unnamed_addr constant [1 x i8] zeroinitializer, align 1
@_ZL20boundSearchKernelsCL = internal global ptr @.str.8, align 8
@.str.1 = private unnamed_addr constant [67 x i8] c"src/Bullet3OpenCL/ParallelPrimitives/kernels/BoundSearchKernels.cl\00", align 1
@.str.2 = private unnamed_addr constant [26 x i8] c"SearchSortDataLowerKernel\00", align 1
@.str.3 = private unnamed_addr constant [26 x i8] c"SearchSortDataUpperKernel\00", align 1
@.str.4 = private unnamed_addr constant [15 x i8] c"SubtractKernel\00", align 1

; Function Attrs: inlinehint mustprogress uwtable
define linkonce_odr dso_local noundef ptr @_ZN13b3OpenCLUtils25compileCLKernelFromStringEP11_cl_contextP13_cl_device_idPKcS5_PiP11_cl_programS5_(ptr noundef %0, ptr noundef %1, ptr noundef %2, ptr noundef %3, ptr noundef %4, ptr noundef %5, ptr noundef %6) #2 comdat align 2 {
  %8 = alloca ptr, align 8
  %9 = alloca ptr, align 8
  %10 = alloca ptr, align 8
  %11 = alloca ptr, align 8
  %12 = alloca ptr, align 8
  %13 = alloca ptr, align 8
  %14 = alloca ptr, align 8
  store ptr %0, ptr %8, align 8, !tbaa !9
  store ptr %1, ptr %9, align 8, !tbaa !11
  store ptr %2, ptr %10, align 8, !tbaa !27
  store ptr %3, ptr %11, align 8, !tbaa !27
  store ptr %4, ptr %12, align 8, !tbaa !37
  store ptr %5, ptr %13, align 8, !tbaa !29
  store ptr %6, ptr %14, align 8, !tbaa !27
  %15 = load ptr, ptr %8, align 8, !tbaa !9
  %16 = load ptr, ptr %9, align 8, !tbaa !11
  %17 = load ptr, ptr %10, align 8, !tbaa !27
  %18 = load ptr, ptr %11, align 8, !tbaa !27
  %19 = load ptr, ptr %12, align 8, !tbaa !37
  %20 = load ptr, ptr %13, align 8, !tbaa !29
  %21 = load ptr, ptr %14, align 8, !tbaa !27
  %22 = call ptr @b3OpenCLUtils_compileCLKernelFromString(ptr noundef %15, ptr noundef %16, ptr noundef %17, ptr noundef %18, ptr noundef %19, ptr noundef %20, ptr noundef %21)
  ret ptr %22
}

; Function Attrs: inlinehint mustprogress uwtable
define linkonce_odr dso_local noundef ptr @_ZN13b3OpenCLUtils26compileCLProgramFromStringEP11_cl_contextP13_cl_device_idPKcPiS5_S5_b(ptr noundef %0, ptr noundef %1, ptr noundef %2, ptr noundef %3, ptr noundef %4, ptr noundef %5, i1 noundef zeroext %6) #2 comdat align 2 {
  %8 = alloca ptr, align 8
  %9 = alloca ptr, align 8
  %10 = alloca ptr, align 8
  %11 = alloca ptr, align 8
  %12 = alloca ptr, align 8
  %13 = alloca ptr, align 8
  %14 = alloca i8, align 1
  store ptr %0, ptr %8, align 8, !tbaa !9
  store ptr %1, ptr %9, align 8, !tbaa !11
  store ptr %2, ptr %10, align 8, !tbaa !27
  store ptr %3, ptr %11, align 8, !tbaa !37
  store ptr %4, ptr %12, align 8, !tbaa !27
  store ptr %5, ptr %13, align 8, !tbaa !27
  %15 = zext i1 %6 to i8
  store i8 %15, ptr %14, align 1, !tbaa !39
  %16 = load ptr, ptr %8, align 8, !tbaa !9
  %17 = load ptr, ptr %9, align 8, !tbaa !11
  %18 = load ptr, ptr %10, align 8, !tbaa !27
  %19 = load ptr, ptr %11, align 8, !tbaa !37
  %20 = load ptr, ptr %12, align 8, !tbaa !27
  %21 = load ptr, ptr %13, align 8, !tbaa !27
  %22 = load i8, ptr %14, align 1, !tbaa !39, !range !41, !noundef !42
  %23 = trunc i8 %22 to i1
  %24 = call ptr @b3OpenCLUtils_compileCLProgramFromString(ptr noundef %16, ptr noundef %17, ptr noundef %18, ptr noundef %19, ptr noundef %20, ptr noundef %21, i1 noundef zeroext %23)
  ret ptr %24
}

; Function Attrs: mustprogress uwtable
define dso_local void @_ZN15b3BoundSearchCLC2EP11_cl_contextP13_cl_device_idP17_cl_command_queuei(ptr noundef nonnull align 8 dereferenceable(88) %0, ptr noundef %1, ptr noundef %2, ptr noundef %3, i32 noundef %4) unnamed_addr #0 align 2 personality ptr @__gxx_personality_v0 {
  %6 = alloca ptr, align 8
  %7 = alloca ptr, align 8
  %8 = alloca ptr, align 8
  %9 = alloca ptr, align 8
  %10 = alloca i32, align 4
  %11 = alloca ptr, align 8
  %12 = alloca i32, align 4
  %13 = alloca ptr, align 8
  %14 = alloca ptr, align 8
  %15 = alloca ptr, align 8
  %16 = alloca i1, align 1
  %17 = alloca ptr, align 8
  %18 = alloca i32, align 4
  %19 = alloca ptr, align 8
  %20 = alloca i1, align 1
  store ptr %0, ptr %6, align 8, !tbaa !4
  store ptr %1, ptr %7, align 8, !tbaa !9
  store ptr %2, ptr %8, align 8, !tbaa !11
  store ptr %3, ptr %9, align 8, !tbaa !13
  store i32 %4, ptr %10, align 4, !tbaa !15
  %21 = load ptr, ptr %6, align 8
  store ptr getelementptr inbounds inrange(-16, 16) ({ [4 x ptr] }, ptr @_ZTV15b3BoundSearchCL, i32 0, i32 0, i32 2), ptr %21, align 8, !tbaa !17
  %22 = getelementptr inbounds nuw %class.b3BoundSearchCL, ptr %21, i32 0, i32 1
  %23 = load ptr, ptr %7, align 8, !tbaa !9
  store ptr %23, ptr %22, align 8, !tbaa !19
  %24 = getelementptr inbounds nuw %class.b3BoundSearchCL, ptr %21, i32 0, i32 2
  %25 = load ptr, ptr %8, align 8, !tbaa !11
  store ptr %25, ptr %24, align 8, !tbaa !25
  %26 = getelementptr inbounds nuw %class.b3BoundSearchCL, ptr %21, i32 0, i32 3
  %27 = load ptr, ptr %9, align 8, !tbaa !13
  store ptr %27, ptr %26, align 8, !tbaa !26
  call void @llvm.lifetime.start.p0(i64 8, ptr %11) #11
  store ptr @.str, ptr %11, align 8, !tbaa !27
  call void @llvm.lifetime.start.p0(i64 4, ptr %12) #11
  call void @llvm.lifetime.start.p0(i64 8, ptr %13) #11
  %28 = load ptr, ptr @_ZL20boundSearchKernelsCL, align 8, !tbaa !27
  store ptr %28, ptr %13, align 8, !tbaa !27
  call void @llvm.lifetime.start.p0(i64 8, ptr %14) #11
  %29 = load ptr, ptr %7, align 8, !tbaa !9
  %30 = load ptr, ptr %8, align 8, !tbaa !11
  %31 = load ptr, ptr %13, align 8, !tbaa !27
  %32 = load ptr, ptr %11, align 8, !tbaa !27
  %33 = call noundef ptr @_ZN13b3OpenCLUtils26compileCLProgramFromStringEP11_cl_contextP13_cl_device_idPKcPiS5_S5_b(ptr noundef %29, ptr noundef %30, ptr noundef %31, ptr noundef %12, ptr noundef %32, ptr noundef @.str.1, i1 noundef zeroext false)
  store ptr %33, ptr %14, align 8, !tbaa !29
  %34 = load ptr, ptr %7, align 8, !tbaa !9
  %35 = load ptr, ptr %8, align 8, !tbaa !11
  %36 = load ptr, ptr %13, align 8, !tbaa !27
  %37 = load ptr, ptr %14, align 8, !tbaa !29
  %38 = load ptr, ptr %11, align 8, !tbaa !27
  %39 = call noundef ptr @_ZN13b3OpenCLUtils25compileCLKernelFromStringEP11_cl_contextP13_cl_device_idPKcS5_PiP11_cl_programS5_(ptr noundef %34, ptr noundef %35, ptr noundef %36, ptr noundef @.str.2, ptr noundef %12, ptr noundef %37, ptr noundef %38)
  %40 = getelementptr inbounds nuw %class.b3BoundSearchCL, ptr %21, i32 0, i32 4
  store ptr %39, ptr %40, align 8, !tbaa !31
  %41 = load ptr, ptr %7, align 8, !tbaa !9
  %42 = load ptr, ptr %8, align 8, !tbaa !11
  %43 = load ptr, ptr %13, align 8, !tbaa !27
  %44 = load ptr, ptr %14, align 8, !tbaa !29
  %45 = load ptr, ptr %11, align 8, !tbaa !27
  %46 = call noundef ptr @_ZN13b3OpenCLUtils25compileCLKernelFromStringEP11_cl_contextP13_cl_device_idPKcS5_PiP11_cl_programS5_(ptr noundef %41, ptr noundef %42, ptr noundef %43, ptr noundef @.str.3, ptr noundef %12, ptr noundef %44, ptr noundef %45)
  %47 = getelementptr inbounds nuw %class.b3BoundSearchCL, ptr %21, i32 0, i32 5
  store ptr %46, ptr %47, align 8, !tbaa !32
  %48 = getelementptr inbounds nuw %class.b3BoundSearchCL, ptr %21, i32 0, i32 6
  store ptr null, ptr %48, align 8, !tbaa !33
  %49 = load i32, ptr %10, align 4, !tbaa !15
  %50 = icmp ne i32 %49, 0
  br i1 %50, label %51, label %59

51:                                               ; preds = %5
  %52 = load ptr, ptr %7, align 8, !tbaa !9
  %53 = load ptr, ptr %8, align 8, !tbaa !11
  %54 = load ptr, ptr %13, align 8, !tbaa !27
  %55 = load ptr, ptr %14, align 8, !tbaa !29
  %56 = load ptr, ptr %11, align 8, !tbaa !27
  %57 = call noundef ptr @_ZN13b3OpenCLUtils25compileCLKernelFromStringEP11_cl_contextP13_cl_device_idPKcS5_PiP11_cl_programS5_(ptr noundef %52, ptr noundef %53, ptr noundef %54, ptr noundef @.str.4, ptr noundef %12, ptr noundef %55, ptr noundef %56)
  %58 = getelementptr inbounds nuw %class.b3BoundSearchCL, ptr %21, i32 0, i32 6
  store ptr %57, ptr %58, align 8, !tbaa !33
  br label %59

59:                                               ; preds = %51, %5
  %60 = load i32, ptr %10, align 4, !tbaa !15
  %61 = icmp eq i32 %60, 0
  store i1 false, ptr %16, align 1
  br i1 %61, label %62, label %63

62:                                               ; preds = %59
  br label %70

63:                                               ; preds = %59
  %64 = call noalias noundef nonnull ptr @_Znwm(i64 noundef 56) #12
  store ptr %64, ptr %15, align 8
  store i1 true, ptr %16, align 1
  %65 = load ptr, ptr %7, align 8, !tbaa !9
  %66 = load ptr, ptr %9, align 8, !tbaa !13
  %67 = load i32, ptr %10, align 4, !tbaa !15
  %68 = sext i32 %67 to i64
  invoke void @_ZN13b3OpenCLArrayIjEC2EP11_cl_contextP17_cl_command_queuemb(ptr noundef nonnull align 8 dereferenceable(50) %64, ptr noundef %65, ptr noundef %66, i64 noundef %68, i1 noundef zeroext true)
          to label %69 unwind label %92

69:                                               ; preds = %63
  br label %70

70:                                               ; preds = %69, %62
  %71 = phi ptr [ null, %62 ], [ %64, %69 ]
  %72 = getelementptr inbounds nuw %class.b3BoundSearchCL, ptr %21, i32 0, i32 8
  store ptr %71, ptr %72, align 8, !tbaa !34
  %73 = load i32, ptr %10, align 4, !tbaa !15
  %74 = icmp eq i32 %73, 0
  store i1 false, ptr %20, align 1
  br i1 %74, label %75, label %76

75:                                               ; preds = %70
  br label %83

76:                                               ; preds = %70
  %77 = call noalias noundef nonnull ptr @_Znwm(i64 noundef 56) #12
  store ptr %77, ptr %19, align 8
  store i1 true, ptr %20, align 1
  %78 = load ptr, ptr %7, align 8, !tbaa !9
  %79 = load ptr, ptr %9, align 8, !tbaa !13
  %80 = load i32, ptr %10, align 4, !tbaa !15
  %81 = sext i32 %80 to i64
  invoke void @_ZN13b3OpenCLArrayIjEC2EP11_cl_contextP17_cl_command_queuemb(ptr noundef nonnull align 8 dereferenceable(50) %77, ptr noundef %78, ptr noundef %79, i64 noundef %81, i1 noundef zeroext true)
          to label %82 unwind label %100

82:                                               ; preds = %76
  br label %83

83:                                               ; preds = %82, %75
  %84 = phi ptr [ null, %75 ], [ %77, %82 ]
  %85 = getelementptr inbounds nuw %class.b3BoundSearchCL, ptr %21, i32 0, i32 9
  store ptr %84, ptr %85, align 8, !tbaa !35
  %86 = call noalias noundef nonnull ptr @_Znwm(i64 noundef 48) #12
  %87 = load ptr, ptr %7, align 8, !tbaa !9
  %88 = load ptr, ptr %8, align 8, !tbaa !11
  %89 = load ptr, ptr %9, align 8, !tbaa !13
  invoke void @_ZN8b3FillCLC1EP11_cl_contextP13_cl_device_idP17_cl_command_queue(ptr noundef nonnull align 8 dereferenceable(48) %86, ptr noundef %87, ptr noundef %88, ptr noundef %89)
          to label %90 unwind label %108

90:                                               ; preds = %83
  %91 = getelementptr inbounds nuw %class.b3BoundSearchCL, ptr %21, i32 0, i32 10
  store ptr %86, ptr %91, align 8, !tbaa !36
  call void @llvm.lifetime.end.p0(i64 8, ptr %14) #11
  call void @llvm.lifetime.end.p0(i64 8, ptr %13) #11
  call void @llvm.lifetime.end.p0(i64 4, ptr %12) #11
  call void @llvm.lifetime.end.p0(i64 8, ptr %11) #11
  ret void

92:                                               ; preds = %63
  %93 = landingpad { ptr, i32 }
          cleanup
  %94 = extractvalue { ptr, i32 } %93, 0
  store ptr %94, ptr %17, align 8
  %95 = extractvalue { ptr, i32 } %93, 1
  store i32 %95, ptr %18, align 4
  %96 = load i1, ptr %16, align 1
  br i1 %96, label %97, label %99

97:                                               ; preds = %92
  %98 = load ptr, ptr %15, align 8
  call void @_ZdlPvm(ptr noundef %98, i64 noundef 56) #13
  br label %99

99:                                               ; preds = %97, %92
  br label %112

100:                                              ; preds = %76
  %101 = landingpad { ptr, i32 }
          cleanup
  %102 = extractvalue { ptr, i32 } %101, 0
  store ptr %102, ptr %17, align 8
  %103 = extractvalue { ptr, i32 } %101, 1
  store i32 %103, ptr %18, align 4
  %104 = load i1, ptr %20, align 1
  br i1 %104, label %105, label %107

105:                                              ; preds = %100
  %106 = load ptr, ptr %19, align 8
  call void @_ZdlPvm(ptr noundef %106, i64 noundef 56) #13
  br label %107

107:                                              ; preds = %105, %100
  br label %112

108:                                              ; preds = %83
  %109 = landingpad { ptr, i32 }
          cleanup
  %110 = extractvalue { ptr, i32 } %109, 0
  store ptr %110, ptr %17, align 8
  %111 = extractvalue { ptr, i32 } %109, 1
  store i32 %111, ptr %18, align 4
  call void @_ZdlPvm(ptr noundef %86, i64 noundef 48) #13
  br label %112

112:                                              ; preds = %108, %107, %99
  call void @llvm.lifetime.end.p0(i64 8, ptr %14) #11
  call void @llvm.lifetime.end.p0(i64 8, ptr %13) #11
  call void @llvm.lifetime.end.p0(i64 4, ptr %12) #11
  call void @llvm.lifetime.end.p0(i64 8, ptr %11) #11
  br label %113

113:                                              ; preds = %112
  %114 = load ptr, ptr %17, align 8
  %115 = load i32, ptr %18, align 4
  %116 = insertvalue { ptr, i32 } poison, ptr %114, 0
  %117 = insertvalue { ptr, i32 } %116, i32 %115, 1
  resume { ptr, i32 } %117
}