; Function Attrs: mustprogress uwtable
define dso_local void @_ZN15b3BoundSearchCLC2EP11_cl_contextP13_cl_device_idP17_cl_command_queuei(ptr noundef nonnull writeonly align 8 captures(none) dereferenceable(88) initializes((0, 56)) %0, ptr noundef %1, ptr noundef %2, ptr noundef %3, i32 noundef %4) unnamed_addr #0 align 2 personality ptr @__gxx_personality_v0 {
  %6 = alloca i32, align 4
  store ptr getelementptr inbounds nuw inrange(-16, 16) (i8, ptr @_ZTV15b3BoundSearchCL, i64 16), ptr %0, align 8, !tbaa !4
  %7 = getelementptr inbounds nuw i8, ptr %0, i64 8
  store ptr %1, ptr %7, align 8, !tbaa !7
  %8 = getelementptr inbounds nuw i8, ptr %0, i64 16
  store ptr %2, ptr %8, align 8, !tbaa !18
  %9 = getelementptr inbounds nuw i8, ptr %0, i64 24
  store ptr %3, ptr %9, align 8, !tbaa !19
  call void @llvm.lifetime.start.p0(i64 4, ptr nonnull %6) #13
  %10 = call noundef ptr @b3OpenCLUtils_compileCLProgramFromString(ptr noundef %1, ptr noundef %2, ptr noundef nonnull @.str.8, ptr noundef nonnull %6, ptr noundef nonnull @.str, ptr noundef nonnull @.str.1, i1 noundef zeroext false)
  %11 = call noundef ptr @b3OpenCLUtils_compileCLKernelFromString(ptr noundef %1, ptr noundef %2, ptr noundef nonnull @.str.8, ptr noundef nonnull @.str.2, ptr noundef nonnull %6, ptr noundef %10, ptr noundef nonnull @.str)
  %12 = getelementptr inbounds nuw i8, ptr %0, i64 32
  store ptr %11, ptr %12, align 8, !tbaa !20
  %13 = call noundef ptr @b3OpenCLUtils_compileCLKernelFromString(ptr noundef %1, ptr noundef %2, ptr noundef nonnull @.str.8, ptr noundef nonnull @.str.3, ptr noundef nonnull %6, ptr noundef %10, ptr noundef nonnull @.str)
  %14 = getelementptr inbounds nuw i8, ptr %0, i64 40
  store ptr %13, ptr %14, align 8, !tbaa !21
  %15 = getelementptr inbounds nuw i8, ptr %0, i64 48
  store ptr null, ptr %15, align 8, !tbaa !22
  %.not = icmp eq i32 %4, 0
  br i1 %.not, label %.critedge, label %16

16:                                               ; preds = %5
  %17 = call noundef ptr @b3OpenCLUtils_compileCLKernelFromString(ptr noundef %1, ptr noundef %2, ptr noundef nonnull @.str.8, ptr noundef nonnull @.str.4, ptr noundef nonnull %6, ptr noundef %10, ptr noundef nonnull @.str)
  store ptr %17, ptr %15, align 8, !tbaa !22
  %18 = call noalias noundef nonnull dereferenceable(56) ptr @_Znwm(i64 noundef 56) #14
  %19 = sext i32 %4 to i64
  invoke void @_ZN13b3OpenCLArrayIjEC2EP11_cl_contextP17_cl_command_queuemb(ptr noundef nonnull align 8 dereferenceable(50) %18, ptr noundef %1, ptr noundef %3, i64 noundef %19, i1 noundef zeroext true)
          to label %20 unwind label %30

20:                                               ; preds = %16
  %21 = getelementptr inbounds nuw i8, ptr %0, i64 64
  store ptr %18, ptr %21, align 8, !tbaa !23
  %22 = call noalias noundef nonnull dereferenceable(56) ptr @_Znwm(i64 noundef 56) #14
  invoke void @_ZN13b3OpenCLArrayIjEC2EP11_cl_contextP17_cl_command_queuemb(ptr noundef nonnull align 8 dereferenceable(50) %22, ptr noundef %1, ptr noundef %3, i64 noundef %19, i1 noundef zeroext true)
          to label %24 unwind label %32

.critedge:                                        ; preds = %5
  %23 = getelementptr inbounds nuw i8, ptr %0, i64 64
  store ptr null, ptr %23, align 8, !tbaa !23
  br label %24

24:                                               ; preds = %.critedge, %20
  %25 = phi ptr [ %22, %20 ], [ null, %.critedge ]
  %26 = getelementptr inbounds nuw i8, ptr %0, i64 72
  store ptr %25, ptr %26, align 8, !tbaa !24
  %27 = call noalias noundef nonnull dereferenceable(48) ptr @_Znwm(i64 noundef 48) #14
  invoke void @_ZN8b3FillCLC1EP11_cl_contextP13_cl_device_idP17_cl_command_queue(ptr noundef nonnull align 8 dereferenceable(48) %27, ptr noundef %1, ptr noundef %2, ptr noundef %3)
          to label %28 unwind label %34

28:                                               ; preds = %24
  %29 = getelementptr inbounds nuw i8, ptr %0, i64 80
  store ptr %27, ptr %29, align 8, !tbaa !25
  call void @llvm.lifetime.end.p0(i64 4, ptr nonnull %6) #13
  ret void

30:                                               ; preds = %16
  %31 = landingpad { ptr, i32 }
          cleanup
  call void @_ZdlPvm(ptr noundef nonnull %18, i64 noundef 56) #15
  br label %36

32:                                               ; preds = %20
  %33 = landingpad { ptr, i32 }
          cleanup
  call void @_ZdlPvm(ptr noundef nonnull %22, i64 noundef 56) #15
  br label %36

34:                                               ; preds = %24
  %35 = landingpad { ptr, i32 }
          cleanup
  call void @_ZdlPvm(ptr noundef nonnull %27, i64 noundef 48) #15
  br label %36

36:                                               ; preds = %32, %30, %34
  %.pn = phi { ptr, i32 } [ %35, %34 ], [ %33, %32 ], [ %31, %30 ]
  call void @llvm.lifetime.end.p0(i64 4, ptr nonnull %6) #13
  resume { ptr, i32 } %.pn
}